target datalayout = "e-m:e-p270:32:32-p271:32:32-p272:64:64-i64:64-i128:128-f80:128-n8:16:32:64-S128"
target triple = "x86_64-pc-linux-gnu"

@hf_zbee_zcl_basic_pwr_src = internal global i32 0, align 4
@hf_zbee_zcl_basic_dev_en = internal global i32 0, align 4
@hf_zbee_zcl_basic_alarm_mask = internal global i32 0, align 4
@hf_zbee_zcl_basic_disable_local_cfg = internal global i32 0, align 4
@ett_zbee_zcl_basic_alarm_mask = internal global i32 0, align 4
@ett_zbee_zcl_basic_dis_local_cfg = internal global i32 0, align 4
@dissect_zcl_basic_attr_data.alarm_mask = internal constant [4 x ptr] [ptr @hf_zbee_zcl_basic_alarm_mask_gen_hw_fault, ptr @hf_zbee_zcl_basic_alarm_mask_gen_sw_fault, ptr @hf_zbee_zcl_basic_alarm_mask_reserved, ptr null], align 16
@dissect_zcl_basic_attr_data.local_cfg = internal constant [4 x ptr] [ptr @hf_zbee_zcl_basic_disable_local_cfg_reset, ptr @hf_zbee_zcl_basic_disable_local_cfg_device_cfg, ptr @hf_zbee_zcl_basic_disable_local_cfg_reserved, ptr null], align 16

; Function Attrs: null_pointer_is_valid sspstrong uwtable
define internal void @dissect_zcl_basic_attr_data(ptr noundef %0, ptr noundef %1, ptr noundef %2, i16 noundef zeroext %3, i32 noundef %4, i1 noundef zeroext %5) #0 {
  %7 = alloca ptr, align 8
  %8 = alloca ptr, align 8
  %9 = alloca ptr, align 8
  %10 = alloca i16, align 2
  %11 = alloca i32, align 4
  %12 = alloca i8, align 1
  store ptr %0, ptr %7, align 8
  store ptr %1, ptr %8, align 8
  store ptr %2, ptr %9, align 8
  store i16 %3, ptr %10, align 2
  store i32 %4, ptr %11, align 4
  %13 = zext i1 %5 to i8
  store i8 %13, ptr %12, align 1
  %14 = load i16, ptr %10, align 2
  %15 = zext i16 %14 to i32
  switch i32 %15, label %59 [
    i32 7, label %16
    i32 18, label %26
    i32 19, label %36
    i32 20, label %47
    i32 0, label %58
    i32 1, label %58
    i32 2, label %58
    i32 3, label %58
    i32 4, label %58
    i32 5, label %58
    i32 6, label %58
    i32 17, label %58
    i32 16, label %58
    i32 16384, label %58
  ]

16:                                               ; preds = %6
  %17 = load ptr, ptr %7, align 8
  %18 = load i32, ptr @hf_zbee_zcl_basic_pwr_src, align 4
  %19 = load ptr, ptr %8, align 8
  %20 = load ptr, ptr %9, align 8
  %21 = load i32, ptr %20, align 4
  %22 = call ptr @proto_tree_add_item(ptr noundef %17, i32 noundef %18, ptr noundef %19, i32 noundef %21, i32 noundef 1, i32 noundef 0)
  %23 = load ptr, ptr %9, align 8
  %24 = load i32, ptr %23, align 4
  %25 = add i32 %24, 1
  store i32 %25, ptr %23, align 4
  br label %66

26:                                               ; preds = %6
  %27 = load ptr, ptr %7, align 8
  %28 = load i32, ptr @hf_zbee_zcl_basic_dev_en, align 4
  %29 = load ptr, ptr %8, align 8
  %30 = load ptr, ptr %9, align 8
  %31 = load i32, ptr %30, align 4
  %32 = call ptr @proto_tree_add_item(ptr noundef %27, i32 noundef %28, ptr noundef %29, i32 noundef %31, i32 noundef 1, i32 noundef 0)
  %33 = load ptr, ptr %9, align 8
  %34 = load i32, ptr %33, align 4
  %35 = add i32 %34, 1
  store i32 %35, ptr %33, align 4
  br label %66

36:                                               ; preds = %6
  %37 = load ptr, ptr %7, align 8
  %38 = load ptr, ptr %8, align 8
  %39 = load ptr, ptr %9, align 8
  %40 = load i32, ptr %39, align 4
  %41 = load i32, ptr @hf_zbee_zcl_basic_alarm_mask, align 4
  %42 = load i32, ptr @ett_zbee_zcl_basic_alarm_mask, align 4
  %43 = call ptr @proto_tree_add_bitmask(ptr noundef %37, ptr noundef %38, i32 noundef %40, i32 noundef %41, i32 noundef %42, ptr noundef @dissect_zcl_basic_attr_data.alarm_mask, i32 noundef 0)
  %44 = load ptr, ptr %9, align 8
  %45 = load i32, ptr %44, align 4
  %46 = add i32 %45, 1
  store i32 %46, ptr %44, align 4
  br label %66

47:                                               ; preds = %6
  %48 = load ptr, ptr %7, align 8
  %49 = load ptr, ptr %8, align 8
  %50 = load ptr, ptr %9, align 8
  %51 = load i32, ptr %50, align 4
  %52 = load i32, ptr @hf_zbee_zcl_basic_disable_local_cfg, align 4
  %53 = load i32, ptr @ett_zbee_zcl_basic_dis_local_cfg, align 4
  %54 = call ptr @proto_tree_add_bitmask(ptr noundef %48, ptr noundef %49, i32 noundef %51, i32 noundef %52, i32 noundef %53, ptr noundef @dissect_zcl_basic_attr_data.local_cfg, i32 noundef 0)
  %55 = load ptr, ptr %9, align 8
  %56 = load i32, ptr %55, align 4
  %57 = add i32 %56, 1
  store i32 %57, ptr %55, align 4
  br label %66

58:                                               ; preds = %6, %6, %6, %6, %6, %6, %6, %6, %6, %6
  br label %59

59:                                               ; preds = %6, %58
  %60 = load ptr, ptr %8, align 8
  %61 = load ptr, ptr %7, align 8
  %62 = load ptr, ptr %9, align 8
  %63 = load i32, ptr %11, align 4
  %64 = load i8, ptr %12, align 1, !range !6, !noundef !7
  %65 = trunc i8 %64 to i1
  call void @dissect_zcl_attr_data(ptr noundef %60, ptr noundef %61, ptr noundef %62, i32 noundef %63, i1 noundef zeroext %65)
  br label %66

66:                                               ; preds = %59, %47, %36, %26, %16
  ret void
}