; Function Attrs: null_pointer_is_valid sspstrong uwtable
define internal void @dissect_zcl_basic_attr_data(ptr noundef %0, ptr noundef %1, ptr noundef %2, i16 noundef zeroext %3, i32 noundef %4, i1 noundef zeroext %5) #0 {
  switch i16 %3, label %33 [
    i16 7, label %7
    i16 18, label %13
    i16 19, label %19
    i16 20, label %26
  ]

7:                                                ; preds = %6
  %8 = load i32, ptr @hf_zbee_zcl_basic_pwr_src, align 4
  %9 = load i32, ptr %2, align 4
  %10 = tail call ptr @proto_tree_add_item(ptr noundef %0, i32 noundef %8, ptr noundef %1, i32 noundef %9, i32 noundef 1, i32 noundef 0)
  %11 = load i32, ptr %2, align 4
  %12 = add i32 %11, 1
  store i32 %12, ptr %2, align 4
  br label %34

13:                                               ; preds = %6
  %14 = load i32, ptr @hf_zbee_zcl_basic_dev_en, align 4
  %15 = load i32, ptr %2, align 4
  %16 = tail call ptr @proto_tree_add_item(ptr noundef %0, i32 noundef %14, ptr noundef %1, i32 noundef %15, i32 noundef 1, i32 noundef 0)
  %17 = load i32, ptr %2, align 4
  %18 = add i32 %17, 1
  store i32 %18, ptr %2, align 4
  br label %34

19:                                               ; preds = %6
  %20 = load i32, ptr %2, align 4
  %21 = load i32, ptr @hf_zbee_zcl_basic_alarm_mask, align 4
  %22 = load i32, ptr @ett_zbee_zcl_basic_alarm_mask, align 4
  %23 = tail call ptr @proto_tree_add_bitmask(ptr noundef %0, ptr noundef %1, i32 noundef %20, i32 noundef %21, i32 noundef %22, ptr noundef nonnull @dissect_zcl_basic_attr_data.alarm_mask, i32 noundef 0)
  %24 = load i32, ptr %2, align 4
  %25 = add i32 %24, 1
  store i32 %25, ptr %2, align 4
  br label %34

26:                                               ; preds = %6
  %27 = load i32, ptr %2, align 4
  %28 = load i32, ptr @hf_zbee_zcl_basic_disable_local_cfg, align 4
  %29 = load i32, ptr @ett_zbee_zcl_basic_dis_local_cfg, align 4
  %30 = tail call ptr @proto_tree_add_bitmask(ptr noundef %0, ptr noundef %1, i32 noundef %27, i32 noundef %28, i32 noundef %29, ptr noundef nonnull @dissect_zcl_basic_attr_data.local_cfg, i32 noundef 0)
  %31 = load i32, ptr %2, align 4
  %32 = add i32 %31, 1
  store i32 %32, ptr %2, align 4
  br label %34

33:                                               ; preds = %6
  tail call void @dissect_zcl_attr_data(ptr noundef %1, ptr noundef %0, ptr noundef %2, i32 noundef %4, i1 noundef zeroext %5)
  br label %34

34:                                               ; preds = %33, %26, %19, %13, %7
  ret void
}